---
triple:          'arm64-apple-darwin'
binary-path:     '/Users/elias/repos/C:C++ repos/CSC258/Assignment 1/knapsack'
relocations:
  - { offsetInCU: 0x3F, offset: 0x3F, size: 0x8, addend: 0x0, symName: _threadCntLock, symObjAddr: 0x2D90, symBinAddr: 0x100008000, symSize: 0x0 }
  - { offsetInCU: 0x322A, offset: 0x322A, size: 0x8, addend: 0x0, symName: __ZNSt3__16chronomiB7v160006IxNS_5ratioILl1ELl1000000000EEExS3_EENS_11common_typeIJNS0_8durationIT_T0_EENS5_IT1_T2_EEEE4typeERKS8_RKSB_, symObjAddr: 0xCC4, symBinAddr: 0x100001ADC, symSize: 0x70 }
  - { offsetInCU: 0x3A90, offset: 0x3A90, size: 0x8, addend: 0x0, symName: __ZNSt3__16chronomiB7v160006INS0_12steady_clockENS0_8durationIxNS_5ratioILl1ELl1000000000EEEEES6_EENS_11common_typeIJT0_T1_EE4typeERKNS0_10time_pointIT_S8_EERKNSC_ISD_S9_EE, symObjAddr: 0xA54, symBinAddr: 0x10000186C, symSize: 0x58 }
  - { offsetInCU: 0x3BD9, offset: 0x3BD9, size: 0x8, addend: 0x0, symName: __ZNSt3__16chrono13duration_castB7v160006INS0_8durationIdNS_5ratioILl1ELl1000EEEEExNS3_ILl1ELl1000000000EEEEENS_9enable_ifIXsr13__is_durationIT_EE5valueES8_E4typeERKNS2_IT0_T1_EE, symObjAddr: 0xE18, symBinAddr: 0x100001C30, symSize: 0x30 }
  - { offsetInCU: 0x4F21, offset: 0x4F21, size: 0x8, addend: 0x0, symName: __ZNSt3__124__put_character_sequenceB7v160006IcNS_11char_traitsIcEEEERNS_13basic_ostreamIT_T0_EES7_PKS4_m, symObjAddr: 0x2144, symBinAddr: 0x100002F5C, symSize: 0x1EC }
  - { offsetInCU: 0x6863, offset: 0x6863, size: 0x8, addend: 0x0, symName: __ZNSt3__13maxB7v160006IiEERKT_S3_S3_, symObjAddr: 0x15C, symBinAddr: 0x100000F74, symSize: 0x2C }
  - { offsetInCU: 0x68C2, offset: 0x68C2, size: 0x8, addend: 0x0, symName: __ZNSt3__1lsB7v160006INS_11char_traitsIcEEEERNS_13basic_ostreamIcT_EES6_PKc, symObjAddr: 0xAE8, symBinAddr: 0x100001900, symSize: 0x48 }
  - { offsetInCU: 0x6908, offset: 0x6908, size: 0x8, addend: 0x0, symName: __ZNSt3__14endlB7v160006IcNS_11char_traitsIcEEEERNS_13basic_ostreamIT_T0_EES7_, symObjAddr: 0xB5C, symBinAddr: 0x100001974, symSize: 0x58 }
  - { offsetInCU: 0x6948, offset: 0x6948, size: 0x8, addend: 0x0, symName: __ZNSt3__13maxB7v160006IiNS_6__lessIiiEEEERKT_S5_S5_T0_, symObjAddr: 0xBD0, symBinAddr: 0x1000019E8, symSize: 0x54 }
  - { offsetInCU: 0x69DD, offset: 0x69DD, size: 0x8, addend: 0x0, symName: __ZNSt3__122__libcpp_thread_isnullB7v160006EPKP17_opaque_pthread_t, symObjAddr: 0xC58, symBinAddr: 0x100001A70, symSize: 0x30 }
  - { offsetInCU: 0x6A0B, offset: 0x6A0B, size: 0x8, addend: 0x0, symName: __ZNSt3__122__libcpp_thread_get_idB7v160006EPKP17_opaque_pthread_t, symObjAddr: 0xC94, symBinAddr: 0x100001AAC, symSize: 0x18 }
  - { offsetInCU: 0x6E36, offset: 0x6E36, size: 0x8, addend: 0x0, symName: __ZNSt3__122__libcpp_thread_createB7v160006EPP17_opaque_pthread_tPFPvS3_ES3_, symObjAddr: 0x1118, symBinAddr: 0x100001F30, symSize: 0x38 }
  - { offsetInCU: 0x6E82, offset: 0x6E82, size: 0x8, addend: 0x0, symName: __ZNSt3__114__thread_proxyB7v160006INS_5tupleIJNS_10unique_ptrINS_15__thread_structENS_14default_deleteIS3_EEEEPFiiiiEiiiEEEEEPvSA_, symObjAddr: 0x1150, symBinAddr: 0x100001F68, symSize: 0x90 }
  - { offsetInCU: 0x6FF2, offset: 0x6FF2, size: 0x8, addend: 0x0, symName: __ZNSt3__13getB7v160006ILm0EJNS_10unique_ptrINS_15__thread_structENS_14default_deleteIS2_EEEEPFiiiiEiiiEEERNS_13tuple_elementIXT_ENS_5tupleIJDpT0_EEEE4typeERSC_, symObjAddr: 0x18D8, symBinAddr: 0x1000026F0, symSize: 0x24 }
  - { offsetInCU: 0x7049, offset: 0x7049, size: 0x8, addend: 0x0, symName: __ZNSt3__116__thread_executeB7v160006INS_10unique_ptrINS_15__thread_structENS_14default_deleteIS2_EEEEPFiiiiEJiiiEJLm2ELm3ELm4EEEEvRNS_5tupleIJT_T0_DpT1_EEENS_15__tuple_indicesIJXspT2_EEEE, symObjAddr: 0x18FC, symBinAddr: 0x100002714, symSize: 0x5C }
  - { offsetInCU: 0x70BD, offset: 0x70BD, size: 0x8, addend: 0x0, symName: __ZNSt3__116__libcpp_tls_setB7v160006EmPv, symObjAddr: 0x1958, symBinAddr: 0x100002770, symSize: 0x2C }
  - { offsetInCU: 0x70FA, offset: 0x70FA, size: 0x8, addend: 0x0, symName: __ZNSt3__18__invokeB7v160006IPFiiiiEJiiiEEEDTclclsr3stdE7declvalIT_EEspclsr3stdE7declvalIT0_EEEEOS3_DpOS4_, symObjAddr: 0x1998, symBinAddr: 0x1000027B0, symSize: 0x4C }
  - { offsetInCU: 0x7173, offset: 0x7173, size: 0x8, addend: 0x0, symName: __ZNSt3__13getB7v160006ILm1EJNS_10unique_ptrINS_15__thread_structENS_14default_deleteIS2_EEEEPFiiiiEiiiEEERNS_13tuple_elementIXT_ENS_5tupleIJDpT0_EEEE4typeERSC_, symObjAddr: 0x19E4, symBinAddr: 0x1000027FC, symSize: 0x28 }
  - { offsetInCU: 0x71CA, offset: 0x71CA, size: 0x8, addend: 0x0, symName: __ZNSt3__13getB7v160006ILm2EJNS_10unique_ptrINS_15__thread_structENS_14default_deleteIS2_EEEEPFiiiiEiiiEEERNS_13tuple_elementIXT_ENS_5tupleIJDpT0_EEEE4typeERSC_, symObjAddr: 0x1A0C, symBinAddr: 0x100002824, symSize: 0x28 }
  - { offsetInCU: 0x7221, offset: 0x7221, size: 0x8, addend: 0x0, symName: __ZNSt3__13getB7v160006ILm3EJNS_10unique_ptrINS_15__thread_structENS_14default_deleteIS2_EEEEPFiiiiEiiiEEERNS_13tuple_elementIXT_ENS_5tupleIJDpT0_EEEE4typeERSC_, symObjAddr: 0x1A34, symBinAddr: 0x10000284C, symSize: 0x28 }
  - { offsetInCU: 0x7278, offset: 0x7278, size: 0x8, addend: 0x0, symName: __ZNSt3__13getB7v160006ILm4EJNS_10unique_ptrINS_15__thread_structENS_14default_deleteIS2_EEEEPFiiiiEiiiEEERNS_13tuple_elementIXT_ENS_5tupleIJDpT0_EEEE4typeERSC_, symObjAddr: 0x1A5C, symBinAddr: 0x100002874, symSize: 0x28 }
  - { offsetInCU: 0x72CF, offset: 0x72CF, size: 0x8, addend: 0x0, symName: __ZNSt3__116__pad_and_outputB7v160006IcNS_11char_traitsIcEEEENS_19ostreambuf_iteratorIT_T0_EES6_PKS4_S8_S8_RNS_8ios_baseES4_, symObjAddr: 0x2380, symBinAddr: 0x100003198, symSize: 0x240 }
  - { offsetInCU: 0x739E, offset: 0x739E, size: 0x8, addend: 0x0, symName: __ZNSt3__119__debug_db_insert_cB7v160006INS_12basic_stringIcNS_11char_traitsIcEENS_9allocatorIcEEEEEEvPT_, symObjAddr: 0x2834, symBinAddr: 0x10000364C, symSize: 0x10 }
  - { offsetInCU: 0x73CF, offset: 0x73CF, size: 0x8, addend: 0x0, symName: __ZNSt3__112__to_addressB7v160006IKcEEPT_S3_, symObjAddr: 0x2900, symBinAddr: 0x100003718, symSize: 0x14 }
  - { offsetInCU: 0x7437, offset: 0x7437, size: 0x8, addend: 0x0, symName: __ZNSt3__19use_facetB7v160006INS_5ctypeIcEEEERKT_RKNS_6localeE, symObjAddr: 0x2B80, symBinAddr: 0x100003998, symSize: 0x2C }
  - { offsetInCU: 0x7906, offset: 0x7906, size: 0x8, addend: 0x0, symName: __ZNSt3__118__constexpr_strlenB7v160006EPKc, symObjAddr: 0x2C18, symBinAddr: 0x100003A30, symSize: 0x24 }
  - { offsetInCU: 0x7A8D, offset: 0x7A8D, size: 0x8, addend: 0x0, symName: _memo, symObjAddr: 0x29AC8, symBinAddr: 0x100008040, symSize: 0x0 }
  - { offsetInCU: 0x7AB3, offset: 0x7AB3, size: 0x8, addend: 0x0, symName: _weights, symObjAddr: 0x29AD0, symBinAddr: 0x100008048, symSize: 0x0 }
  - { offsetInCU: 0x7AC8, offset: 0x7AC8, size: 0x8, addend: 0x0, symName: _values, symObjAddr: 0x29AD8, symBinAddr: 0x100008050, symSize: 0x0 }
  - { offsetInCU: 0x7ADD, offset: 0x7ADD, size: 0x8, addend: 0x0, symName: _threads, symObjAddr: 0x29AE0, symBinAddr: 0x100008058, symSize: 0x0 }
  - { offsetInCU: 0x7BB8, offset: 0x7BB8, size: 0x8, addend: 0x0, symName: _p, symObjAddr: 0x29AE8, symBinAddr: 0x100008060, symSize: 0x0 }
  - { offsetInCU: 0x7BCD, offset: 0x7BCD, size: 0x8, addend: 0x0, symName: _pRemaining, symObjAddr: 0x29AEC, symBinAddr: 0x100008064, symSize: 0x0 }
  - { offsetInCU: 0x7EE2, offset: 0x7EE2, size: 0x8, addend: 0x0, symName: __ZNKSt3__16chrono15__duration_castINS0_8durationIxNS_5ratioILl1ELl1000000000EEEEENS2_IdNS3_ILl1ELl1000EEEEENS3_ILl1ELl1000000EEELb1ELb0EEclB7v160006ERKS5_, symObjAddr: 0xE48, symBinAddr: 0x100001C60, symSize: 0x50 }
  - { offsetInCU: 0xA4B4, offset: 0xA4B4, size: 0x8, addend: 0x0, symName: __Z8knapsackiii, symObjAddr: 0x0, symBinAddr: 0x100000E18, symSize: 0x15C }
  - { offsetInCU: 0xA51A, offset: 0xA51A, size: 0x8, addend: 0x0, symName: __Z12knapsackMultiii, symObjAddr: 0x188, symBinAddr: 0x100000FA0, symSize: 0x3E4 }
  - { offsetInCU: 0xA59A, offset: 0xA59A, size: 0x8, addend: 0x0, symName: __ZNSt3__16threadC1IRFiiiiEJRiiS4_EvEEOT_DpOT0_, symObjAddr: 0x56C, symBinAddr: 0x100001384, symSize: 0x4C }
  - { offsetInCU: 0xA61D, offset: 0xA61D, size: 0x8, addend: 0x0, symName: __ZNSt3__16threadaSB7v160006EOS0_, symObjAddr: 0x5B8, symBinAddr: 0x1000013D0, symSize: 0x60 }
  - { offsetInCU: 0xA650, offset: 0xA650, size: 0x8, addend: 0x0, symName: __ZNSt3__16threadC1IRFiiiiEJRiiiEvEEOT_DpOT0_, symObjAddr: 0x618, symBinAddr: 0x100001430, symSize: 0x4C }
  - { offsetInCU: 0xA6D4, offset: 0xA6D4, size: 0x8, addend: 0x0, symName: _main, symObjAddr: 0x664, symBinAddr: 0x10000147C, symSize: 0x3C4 }
  - { offsetInCU: 0xA7BF, offset: 0xA7BF, size: 0x8, addend: 0x0, symName: __ZNSt3__16threadC1B7v160006Ev, symObjAddr: 0xA28, symBinAddr: 0x100001840, symSize: 0x2C }
  - { offsetInCU: 0xA7ED, offset: 0xA7ED, size: 0x8, addend: 0x0, symName: __ZNSt3__16chrono8durationIdNS_5ratioILl1ELl1000EEEEC1B7v160006IxNS2_ILl1ELl1000000000EEEEERKNS1_IT_T0_EEPNS_9enable_ifIXaasr13__no_overflowIS8_S3_EE5valueooL_ZNS_17integral_constantIbLb1EE5valueEEaaeqsr13__no_overflowIS8_S3_E4typeE3denLi1Entsr23treat_as_floating_pointIS7_EE5valueEvE4typeE, symObjAddr: 0xAAC, symBinAddr: 0x1000018C4, symSize: 0x3C }
  - { offsetInCU: 0xA841, offset: 0xA841, size: 0x8, addend: 0x0, symName: __ZNSt3__113basic_ostreamIcNS_11char_traitsIcEEElsB7v160006EPFRS3_S4_E, symObjAddr: 0xB30, symBinAddr: 0x100001948, symSize: 0x2C }
  - { offsetInCU: 0xA874, offset: 0xA874, size: 0x8, addend: 0x0, symName: __ZNKSt3__16chrono8durationIdNS_5ratioILl1ELl1000EEEE5countB7v160006Ev, symObjAddr: 0xBB4, symBinAddr: 0x1000019CC, symSize: 0x18 }
  - { offsetInCU: 0xA899, offset: 0xA899, size: 0x8, addend: 0x0, symName: __Z9printMemov, symObjAddr: 0xBCC, symBinAddr: 0x1000019E4, symSize: 0x4 }
  - { offsetInCU: 0xA8BD, offset: 0xA8BD, size: 0x8, addend: 0x0, symName: __ZNKSt3__16__lessIiiEclB7v160006ERKiS3_, symObjAddr: 0xC24, symBinAddr: 0x100001A3C, symSize: 0x34 }
  - { offsetInCU: 0xA8FE, offset: 0xA8FE, size: 0x8, addend: 0x0, symName: __ZNSt3__16threadC2B7v160006Ev, symObjAddr: 0xCAC, symBinAddr: 0x100001AC4, symSize: 0x18 }
  - { offsetInCU: 0xA945, offset: 0xA945, size: 0x8, addend: 0x0, symName: __ZNKSt3__16chrono10time_pointINS0_12steady_clockENS0_8durationIxNS_5ratioILl1ELl1000000000EEEEEE16time_since_epochB7v160006Ev, symObjAddr: 0xD34, symBinAddr: 0x100001B4C, symSize: 0x20 }
  - { offsetInCU: 0xA96A, offset: 0xA96A, size: 0x8, addend: 0x0, symName: __ZNKSt3__16chrono8durationIxNS_5ratioILl1ELl1000000000EEEE5countB7v160006Ev, symObjAddr: 0xD54, symBinAddr: 0x100001B6C, symSize: 0x18 }
  - { offsetInCU: 0xA999, offset: 0xA999, size: 0x8, addend: 0x0, symName: __ZNSt3__16chrono8durationIxNS_5ratioILl1ELl1000000000EEEEC1B7v160006IxEERKT_PNS_9enable_ifIXaasr14is_convertibleIS8_xEE5valueooL_ZNS_17integral_constantIbLb0EE5valueEEntsr23treat_as_floating_pointIS6_EE5valueEvE4typeE, symObjAddr: 0xD6C, symBinAddr: 0x100001B84, symSize: 0x3C }
  - { offsetInCU: 0xA9E4, offset: 0xA9E4, size: 0x8, addend: 0x0, symName: __ZNSt3__16chrono8durationIxNS_5ratioILl1ELl1000000000EEEEC2B7v160006IxEERKT_PNS_9enable_ifIXaasr14is_convertibleIS8_xEE5valueooL_ZNS_17integral_constantIbLb0EE5valueEEntsr23treat_as_floating_pointIS6_EE5valueEvE4typeE, symObjAddr: 0xDA8, symBinAddr: 0x100001BC0, symSize: 0x28 }
  - { offsetInCU: 0xAA2F, offset: 0xAA2F, size: 0x8, addend: 0x0, symName: __ZNSt3__16chrono8durationIdNS_5ratioILl1ELl1000EEEEC2B7v160006IxNS2_ILl1ELl1000000000EEEEERKNS1_IT_T0_EEPNS_9enable_ifIXaasr13__no_overflowIS8_S3_EE5valueooL_ZNS_17integral_constantIbLb1EE5valueEEaaeqsr13__no_overflowIS8_S3_E4typeE3denLi1Entsr23treat_as_floating_pointIS7_EE5valueEvE4typeE, symObjAddr: 0xDD0, symBinAddr: 0x100001BE8, symSize: 0x48 }
  - { offsetInCU: 0xAA8E, offset: 0xAA8E, size: 0x8, addend: 0x0, symName: __ZNSt3__16chrono8durationIdNS_5ratioILl1ELl1000EEEEC1B7v160006IdEERKT_PNS_9enable_ifIXaasr14is_convertibleIS8_dEE5valueooL_ZNS_17integral_constantIbLb1EE5valueEEntsr23treat_as_floating_pointIS6_EE5valueEvE4typeE, symObjAddr: 0xE98, symBinAddr: 0x100001CB0, symSize: 0x3C }
  - { offsetInCU: 0xAAD9, offset: 0xAAD9, size: 0x8, addend: 0x0, symName: __ZNSt3__16chrono8durationIdNS_5ratioILl1ELl1000EEEEC2B7v160006IdEERKT_PNS_9enable_ifIXaasr14is_convertibleIS8_dEE5valueooL_ZNS_17integral_constantIbLb1EE5valueEEntsr23treat_as_floating_pointIS6_EE5valueEvE4typeE, symObjAddr: 0xED4, symBinAddr: 0x100001CEC, symSize: 0x28 }
  - { offsetInCU: 0xAB24, offset: 0xAB24, size: 0x8, addend: 0x0, symName: __ZNSt3__16threadC2IRFiiiiEJRiiS4_EvEEOT_DpOT0_, symObjAddr: 0xEFC, symBinAddr: 0x100001D14, symSize: 0x160 }
  - { offsetInCU: 0xABDB, offset: 0xABDB, size: 0x8, addend: 0x0, symName: __ZNSt3__110unique_ptrINS_15__thread_structENS_14default_deleteIS1_EEEC1B7v160006ILb1EvEEPS1_, symObjAddr: 0x105C, symBinAddr: 0x100001E74, symSize: 0x34 }
  - { offsetInCU: 0xAC1D, offset: 0xAC1D, size: 0x8, addend: 0x0, symName: __ZNSt3__15tupleIJNS_10unique_ptrINS_15__thread_structENS_14default_deleteIS2_EEEEPFiiiiEiiiEEC1B7v160006IJS5_RS6_RiiSB_ELi0EEEDpOT_, symObjAddr: 0x1090, symBinAddr: 0x100001EA8, symSize: 0x54 }
  - { offsetInCU: 0xAD47, offset: 0xAD47, size: 0x8, addend: 0x0, symName: __ZNSt3__110unique_ptrINS_5tupleIJNS0_INS_15__thread_structENS_14default_deleteIS2_EEEEPFiiiiEiiiEEENS3_IS8_EEEC1B7v160006ILb1EvEEPS8_, symObjAddr: 0x10E4, symBinAddr: 0x100001EFC, symSize: 0x34 }
  - { offsetInCU: 0xAD88, offset: 0xAD88, size: 0x8, addend: 0x0, symName: __ZNKSt3__110unique_ptrINS_5tupleIJNS0_INS_15__thread_structENS_14default_deleteIS2_EEEEPFiiiiEiiiEEENS3_IS8_EEE3getB7v160006Ev, symObjAddr: 0x11E0, symBinAddr: 0x100001FF8, symSize: 0x28 }
  - { offsetInCU: 0xADAC, offset: 0xADAC, size: 0x8, addend: 0x0, symName: __ZNSt3__110unique_ptrINS_5tupleIJNS0_INS_15__thread_structENS_14default_deleteIS2_EEEEPFiiiiEiiiEEENS3_IS8_EEE7releaseB7v160006Ev, symObjAddr: 0x1208, symBinAddr: 0x100002020, symSize: 0x44 }
  - { offsetInCU: 0xADE0, offset: 0xADE0, size: 0x8, addend: 0x0, symName: __ZNSt3__110unique_ptrINS_5tupleIJNS0_INS_15__thread_structENS_14default_deleteIS2_EEEEPFiiiiEiiiEEENS3_IS8_EEED1B7v160006Ev, symObjAddr: 0x124C, symBinAddr: 0x100002064, symSize: 0x2C }
  - { offsetInCU: 0xAE09, offset: 0xAE09, size: 0x8, addend: 0x0, symName: __ZNSt3__110unique_ptrINS_15__thread_structENS_14default_deleteIS1_EEED1B7v160006Ev, symObjAddr: 0x1278, symBinAddr: 0x100002090, symSize: 0x2C }
  - { offsetInCU: 0xAE32, offset: 0xAE32, size: 0x8, addend: 0x0, symName: __ZNSt3__110unique_ptrINS_15__thread_structENS_14default_deleteIS1_EEEC2B7v160006ILb1EvEEPS1_, symObjAddr: 0x12A4, symBinAddr: 0x1000020BC, symSize: 0x44 }
  - { offsetInCU: 0xAE79, offset: 0xAE79, size: 0x8, addend: 0x0, symName: __ZNSt3__117__compressed_pairIPNS_15__thread_structENS_14default_deleteIS1_EEEC1B7v160006IRS2_NS_16__value_init_tagEEEOT_OT0_, symObjAddr: 0x12E8, symBinAddr: 0x100002100, symSize: 0x3C }
  - { offsetInCU: 0xAED0, offset: 0xAED0, size: 0x8, addend: 0x0, symName: __ZNSt3__117__compressed_pairIPNS_15__thread_structENS_14default_deleteIS1_EEEC2B7v160006IRS2_NS_16__value_init_tagEEEOT_OT0_, symObjAddr: 0x1324, symBinAddr: 0x10000213C, symSize: 0x40 }
  - { offsetInCU: 0xAF27, offset: 0xAF27, size: 0x8, addend: 0x0, symName: __ZNSt3__122__compressed_pair_elemIPNS_15__thread_structELi0ELb0EEC2B7v160006IRS2_vEEOT_, symObjAddr: 0x1364, symBinAddr: 0x10000217C, symSize: 0x24 }
  - { offsetInCU: 0xAF68, offset: 0xAF68, size: 0x8, addend: 0x0, symName: __ZNSt3__122__compressed_pair_elemINS_14default_deleteINS_15__thread_structEEELi1ELb1EEC2B7v160006ENS_16__value_init_tagE, symObjAddr: 0x1388, symBinAddr: 0x1000021A0, symSize: 0x14 }
  - { offsetInCU: 0xAF9C, offset: 0xAF9C, size: 0x8, addend: 0x0, symName: __ZNSt3__15tupleIJNS_10unique_ptrINS_15__thread_structENS_14default_deleteIS2_EEEEPFiiiiEiiiEEC2B7v160006IJS5_RS6_RiiSB_ELi0EEEDpOT_, symObjAddr: 0x139C, symBinAddr: 0x1000021B4, symSize: 0x54 }
  - { offsetInCU: 0xB035, offset: 0xB035, size: 0x8, addend: 0x0, symName: __ZNSt3__112__tuple_implINS_15__tuple_indicesIJLm0ELm1ELm2ELm3ELm4EEEEJNS_10unique_ptrINS_15__thread_structENS_14default_deleteIS4_EEEEPFiiiiEiiiEEC1B7v160006IJLm0ELm1ELm2ELm3ELm4EEJS7_S9_iiiEJEJEJS7_RS8_RiiSD_EEENS1_IJXspT_EEEENS_13__tuple_typesIJDpT0_EEENS1_IJXspT1_EEEENSF_IJDpT2_EEEDpOT3_, symObjAddr: 0x13F0, symBinAddr: 0x100002208, symSize: 0x54 }
  - { offsetInCU: 0xB141, offset: 0xB141, size: 0x8, addend: 0x0, symName: __ZNSt3__112__tuple_implINS_15__tuple_indicesIJLm0ELm1ELm2ELm3ELm4EEEEJNS_10unique_ptrINS_15__thread_structENS_14default_deleteIS4_EEEEPFiiiiEiiiEEC2B7v160006IJLm0ELm1ELm2ELm3ELm4EEJS7_S9_iiiEJEJEJS7_RS8_RiiSD_EEENS1_IJXspT_EEEENS_13__tuple_typesIJDpT0_EEENS1_IJXspT1_EEEENSF_IJDpT2_EEEDpOT3_, symObjAddr: 0x1444, symBinAddr: 0x10000225C, symSize: 0x84 }
  - { offsetInCU: 0xB24D, offset: 0xB24D, size: 0x8, addend: 0x0, symName: __ZNSt3__112__tuple_leafILm0ENS_10unique_ptrINS_15__thread_structENS_14default_deleteIS2_EEEELb0EEC2B7v160006IS5_vEEOT_, symObjAddr: 0x14C8, symBinAddr: 0x1000022E0, symSize: 0x34 }
  - { offsetInCU: 0xB28F, offset: 0xB28F, size: 0x8, addend: 0x0, symName: __ZNSt3__112__tuple_leafILm1EPFiiiiELb0EEC2B7v160006IRS1_vEEOT_, symObjAddr: 0x14FC, symBinAddr: 0x100002314, symSize: 0x20 }
  - { offsetInCU: 0xB2D1, offset: 0xB2D1, size: 0x8, addend: 0x0, symName: __ZNSt3__112__tuple_leafILm2EiLb0EEC2B7v160006IRivEEOT_, symObjAddr: 0x151C, symBinAddr: 0x100002334, symSize: 0x24 }
  - { offsetInCU: 0xB313, offset: 0xB313, size: 0x8, addend: 0x0, symName: __ZNSt3__112__tuple_leafILm3EiLb0EEC2B7v160006IivEEOT_, symObjAddr: 0x1540, symBinAddr: 0x100002358, symSize: 0x24 }
  - { offsetInCU: 0xB355, offset: 0xB355, size: 0x8, addend: 0x0, symName: __ZNSt3__112__tuple_leafILm4EiLb0EEC2B7v160006IRivEEOT_, symObjAddr: 0x1564, symBinAddr: 0x10000237C, symSize: 0x24 }
  - { offsetInCU: 0xB397, offset: 0xB397, size: 0x8, addend: 0x0, symName: __ZNSt3__110unique_ptrINS_15__thread_structENS_14default_deleteIS1_EEEC1B7v160006EOS4_, symObjAddr: 0x1588, symBinAddr: 0x1000023A0, symSize: 0x34 }
  - { offsetInCU: 0xB3CE, offset: 0xB3CE, size: 0x8, addend: 0x0, symName: __ZNSt3__110unique_ptrINS_15__thread_structENS_14default_deleteIS1_EEEC2B7v160006EOS4_, symObjAddr: 0x15BC, symBinAddr: 0x1000023D4, symSize: 0x60 }
  - { offsetInCU: 0xB404, offset: 0xB404, size: 0x8, addend: 0x0, symName: __ZNSt3__110unique_ptrINS_15__thread_structENS_14default_deleteIS1_EEE7releaseB7v160006Ev, symObjAddr: 0x161C, symBinAddr: 0x100002434, symSize: 0x44 }
  - { offsetInCU: 0xB437, offset: 0xB437, size: 0x8, addend: 0x0, symName: __ZNSt3__110unique_ptrINS_15__thread_structENS_14default_deleteIS1_EEE11get_deleterB7v160006Ev, symObjAddr: 0x1660, symBinAddr: 0x100002478, symSize: 0x24 }
  - { offsetInCU: 0xB466, offset: 0xB466, size: 0x8, addend: 0x0, symName: __ZNSt3__117__compressed_pairIPNS_15__thread_structENS_14default_deleteIS1_EEEC1B7v160006IS2_S4_EEOT_OT0_, symObjAddr: 0x1684, symBinAddr: 0x10000249C, symSize: 0x3C }
  - { offsetInCU: 0xB4BC, offset: 0xB4BC, size: 0x8, addend: 0x0, symName: __ZNSt3__117__compressed_pairIPNS_15__thread_structENS_14default_deleteIS1_EEE5firstB7v160006Ev, symObjAddr: 0x16C0, symBinAddr: 0x1000024D8, symSize: 0x24 }
  - { offsetInCU: 0xB4E1, offset: 0xB4E1, size: 0x8, addend: 0x0, symName: __ZNSt3__122__compressed_pair_elemIPNS_15__thread_structELi0ELb0EE5__getB7v160006Ev, symObjAddr: 0x16E4, symBinAddr: 0x1000024FC, symSize: 0x14 }
  - { offsetInCU: 0xB505, offset: 0xB505, size: 0x8, addend: 0x0, symName: __ZNSt3__117__compressed_pairIPNS_15__thread_structENS_14default_deleteIS1_EEE6secondB7v160006Ev, symObjAddr: 0x16F8, symBinAddr: 0x100002510, symSize: 0x24 }
  - { offsetInCU: 0xB52A, offset: 0xB52A, size: 0x8, addend: 0x0, symName: __ZNSt3__122__compressed_pair_elemINS_14default_deleteINS_15__thread_structEEELi1ELb1EE5__getB7v160006Ev, symObjAddr: 0x171C, symBinAddr: 0x100002534, symSize: 0x14 }
  - { offsetInCU: 0xB54F, offset: 0xB54F, size: 0x8, addend: 0x0, symName: __ZNSt3__117__compressed_pairIPNS_15__thread_structENS_14default_deleteIS1_EEEC2B7v160006IS2_S4_EEOT_OT0_, symObjAddr: 0x1730, symBinAddr: 0x100002548, symSize: 0x44 }
  - { offsetInCU: 0xB5A6, offset: 0xB5A6, size: 0x8, addend: 0x0, symName: __ZNSt3__122__compressed_pair_elemIPNS_15__thread_structELi0ELb0EEC2B7v160006IS2_vEEOT_, symObjAddr: 0x1774, symBinAddr: 0x10000258C, symSize: 0x24 }
  - { offsetInCU: 0xB5E7, offset: 0xB5E7, size: 0x8, addend: 0x0, symName: __ZNSt3__122__compressed_pair_elemINS_14default_deleteINS_15__thread_structEEELi1ELb1EEC2B7v160006IS3_vEEOT_, symObjAddr: 0x1798, symBinAddr: 0x1000025B0, symSize: 0x18 }
  - { offsetInCU: 0xB628, offset: 0xB628, size: 0x8, addend: 0x0, symName: __ZNSt3__110unique_ptrINS_5tupleIJNS0_INS_15__thread_structENS_14default_deleteIS2_EEEEPFiiiiEiiiEEENS3_IS8_EEEC2B7v160006ILb1EvEEPS8_, symObjAddr: 0x17B0, symBinAddr: 0x1000025C8, symSize: 0x44 }
  - { offsetInCU: 0xB66A, offset: 0xB66A, size: 0x8, addend: 0x0, symName: __ZNSt3__117__compressed_pairIPNS_5tupleIJNS_10unique_ptrINS_15__thread_structENS_14default_deleteIS3_EEEEPFiiiiEiiiEEENS4_IS9_EEEC1B7v160006IRSA_NS_16__value_init_tagEEEOT_OT0_, symObjAddr: 0x17F4, symBinAddr: 0x10000260C, symSize: 0x3C }
  - { offsetInCU: 0xB6C1, offset: 0xB6C1, size: 0x8, addend: 0x0, symName: __ZNSt3__117__compressed_pairIPNS_5tupleIJNS_10unique_ptrINS_15__thread_structENS_14default_deleteIS3_EEEEPFiiiiEiiiEEENS4_IS9_EEEC2B7v160006IRSA_NS_16__value_init_tagEEEOT_OT0_, symObjAddr: 0x1830, symBinAddr: 0x100002648, symSize: 0x40 }
  - { offsetInCU: 0xB718, offset: 0xB718, size: 0x8, addend: 0x0, symName: __ZNSt3__122__compressed_pair_elemIPNS_5tupleIJNS_10unique_ptrINS_15__thread_structENS_14default_deleteIS3_EEEEPFiiiiEiiiEEELi0ELb0EEC2B7v160006IRSA_vEEOT_, symObjAddr: 0x1870, symBinAddr: 0x100002688, symSize: 0x24 }
  - { offsetInCU: 0xB759, offset: 0xB759, size: 0x8, addend: 0x0, symName: __ZNSt3__122__compressed_pair_elemINS_14default_deleteINS_5tupleIJNS_10unique_ptrINS_15__thread_structENS1_IS4_EEEEPFiiiiEiiiEEEEELi1ELb1EEC2B7v160006ENS_16__value_init_tagE, symObjAddr: 0x1894, symBinAddr: 0x1000026AC, symSize: 0x14 }
  - { offsetInCU: 0xB7BC, offset: 0xB7BC, size: 0x8, addend: 0x0, symName: __ZNSt3__121__thread_specific_ptrINS_15__thread_structEE11set_pointerEPS1_, symObjAddr: 0x18A8, symBinAddr: 0x1000026C0, symSize: 0x30 }
  - { offsetInCU: 0xB7F0, offset: 0xB7F0, size: 0x8, addend: 0x0, symName: __ZNSt3__112__tuple_leafILm0ENS_10unique_ptrINS_15__thread_structENS_14default_deleteIS2_EEEELb0EE3getB7v160006Ev, symObjAddr: 0x1984, symBinAddr: 0x10000279C, symSize: 0x14 }
  - { offsetInCU: 0xB815, offset: 0xB815, size: 0x8, addend: 0x0, symName: __ZNSt3__112__tuple_leafILm1EPFiiiiELb0EE3getB7v160006Ev, symObjAddr: 0x1A84, symBinAddr: 0x10000289C, symSize: 0x14 }
  - { offsetInCU: 0xB83A, offset: 0xB83A, size: 0x8, addend: 0x0, symName: __ZNSt3__112__tuple_leafILm2EiLb0EE3getB7v160006Ev, symObjAddr: 0x1A98, symBinAddr: 0x1000028B0, symSize: 0x14 }
  - { offsetInCU: 0xB85F, offset: 0xB85F, size: 0x8, addend: 0x0, symName: __ZNSt3__112__tuple_leafILm3EiLb0EE3getB7v160006Ev, symObjAddr: 0x1AAC, symBinAddr: 0x1000028C4, symSize: 0x14 }
  - { offsetInCU: 0xB884, offset: 0xB884, size: 0x8, addend: 0x0, symName: __ZNSt3__112__tuple_leafILm4EiLb0EE3getB7v160006Ev, symObjAddr: 0x1AC0, symBinAddr: 0x1000028D8, symSize: 0x14 }
  - { offsetInCU: 0xB8A8, offset: 0xB8A8, size: 0x8, addend: 0x0, symName: __ZNKSt3__117__compressed_pairIPNS_5tupleIJNS_10unique_ptrINS_15__thread_structENS_14default_deleteIS3_EEEEPFiiiiEiiiEEENS4_IS9_EEE5firstB7v160006Ev, symObjAddr: 0x1AD4, symBinAddr: 0x1000028EC, symSize: 0x24 }
  - { offsetInCU: 0xB8CD, offset: 0xB8CD, size: 0x8, addend: 0x0, symName: __ZNKSt3__122__compressed_pair_elemIPNS_5tupleIJNS_10unique_ptrINS_15__thread_structENS_14default_deleteIS3_EEEEPFiiiiEiiiEEELi0ELb0EE5__getB7v160006Ev, symObjAddr: 0x1AF8, symBinAddr: 0x100002910, symSize: 0x14 }
  - { offsetInCU: 0xB8F1, offset: 0xB8F1, size: 0x8, addend: 0x0, symName: __ZNSt3__117__compressed_pairIPNS_5tupleIJNS_10unique_ptrINS_15__thread_structENS_14default_deleteIS3_EEEEPFiiiiEiiiEEENS4_IS9_EEE5firstB7v160006Ev, symObjAddr: 0x1B0C, symBinAddr: 0x100002924, symSize: 0x24 }
  - { offsetInCU: 0xB916, offset: 0xB916, size: 0x8, addend: 0x0, symName: __ZNSt3__122__compressed_pair_elemIPNS_5tupleIJNS_10unique_ptrINS_15__thread_structENS_14default_deleteIS3_EEEEPFiiiiEiiiEEELi0ELb0EE5__getB7v160006Ev, symObjAddr: 0x1B30, symBinAddr: 0x100002948, symSize: 0x14 }
  - { offsetInCU: 0xB93B, offset: 0xB93B, size: 0x8, addend: 0x0, symName: __ZNSt3__110unique_ptrINS_5tupleIJNS0_INS_15__thread_structENS_14default_deleteIS2_EEEEPFiiiiEiiiEEENS3_IS8_EEED2B7v160006Ev, symObjAddr: 0x1B44, symBinAddr: 0x10000295C, symSize: 0x30 }
  - { offsetInCU: 0xB963, offset: 0xB963, size: 0x8, addend: 0x0, symName: __ZNSt3__110unique_ptrINS_5tupleIJNS0_INS_15__thread_structENS_14default_deleteIS2_EEEEPFiiiiEiiiEEENS3_IS8_EEE5resetB7v160006EPS8_, symObjAddr: 0x1B74, symBinAddr: 0x10000298C, symSize: 0x78 }
  - { offsetInCU: 0xB9A5, offset: 0xB9A5, size: 0x8, addend: 0x0, symName: __ZNSt3__117__compressed_pairIPNS_5tupleIJNS_10unique_ptrINS_15__thread_structENS_14default_deleteIS3_EEEEPFiiiiEiiiEEENS4_IS9_EEE6secondB7v160006Ev, symObjAddr: 0x1BEC, symBinAddr: 0x100002A04, symSize: 0x24 }
  - { offsetInCU: 0xB9C9, offset: 0xB9C9, size: 0x8, addend: 0x0, symName: __ZNKSt3__114default_deleteINS_5tupleIJNS_10unique_ptrINS_15__thread_structENS0_IS3_EEEEPFiiiiEiiiEEEEclB7v160006EPS8_, symObjAddr: 0x1C10, symBinAddr: 0x100002A28, symSize: 0x4C }
  - { offsetInCU: 0xB9FC, offset: 0xB9FC, size: 0x8, addend: 0x0, symName: __ZNSt3__122__compressed_pair_elemINS_14default_deleteINS_5tupleIJNS_10unique_ptrINS_15__thread_structENS1_IS4_EEEEPFiiiiEiiiEEEEELi1ELb1EE5__getB7v160006Ev, symObjAddr: 0x1C5C, symBinAddr: 0x100002A74, symSize: 0x14 }
  - { offsetInCU: 0xBA21, offset: 0xBA21, size: 0x8, addend: 0x0, symName: __ZNSt3__15tupleIJNS_10unique_ptrINS_15__thread_structENS_14default_deleteIS2_EEEEPFiiiiEiiiEED1Ev, symObjAddr: 0x1C70, symBinAddr: 0x100002A88, symSize: 0x2C }
  - { offsetInCU: 0xBA4D, offset: 0xBA4D, size: 0x8, addend: 0x0, symName: __ZNSt3__15tupleIJNS_10unique_ptrINS_15__thread_structENS_14default_deleteIS2_EEEEPFiiiiEiiiEED2Ev, symObjAddr: 0x1C9C, symBinAddr: 0x100002AB4, symSize: 0x2C }
  - { offsetInCU: 0xBA79, offset: 0xBA79, size: 0x8, addend: 0x0, symName: __ZNSt3__112__tuple_implINS_15__tuple_indicesIJLm0ELm1ELm2ELm3ELm4EEEEJNS_10unique_ptrINS_15__thread_structENS_14default_deleteIS4_EEEEPFiiiiEiiiEED1Ev, symObjAddr: 0x1CC8, symBinAddr: 0x100002AE0, symSize: 0x2C }
  - { offsetInCU: 0xBAA5, offset: 0xBAA5, size: 0x8, addend: 0x0, symName: __ZNSt3__112__tuple_implINS_15__tuple_indicesIJLm0ELm1ELm2ELm3ELm4EEEEJNS_10unique_ptrINS_15__thread_structENS_14default_deleteIS4_EEEEPFiiiiEiiiEED2Ev, symObjAddr: 0x1CF4, symBinAddr: 0x100002B0C, symSize: 0x2C }
  - { offsetInCU: 0xBAD1, offset: 0xBAD1, size: 0x8, addend: 0x0, symName: __ZNSt3__112__tuple_leafILm0ENS_10unique_ptrINS_15__thread_structENS_14default_deleteIS2_EEEELb0EED2Ev, symObjAddr: 0x1D20, symBinAddr: 0x100002B38, symSize: 0x2C }
  - { offsetInCU: 0xBAFD, offset: 0xBAFD, size: 0x8, addend: 0x0, symName: __ZNSt3__110unique_ptrINS_15__thread_structENS_14default_deleteIS1_EEED2B7v160006Ev, symObjAddr: 0x1D4C, symBinAddr: 0x100002B64, symSize: 0x30 }
  - { offsetInCU: 0xBB25, offset: 0xBB25, size: 0x8, addend: 0x0, symName: __ZNSt3__110unique_ptrINS_15__thread_structENS_14default_deleteIS1_EEE5resetB7v160006EPS1_, symObjAddr: 0x1D7C, symBinAddr: 0x100002B94, symSize: 0x78 }
  - { offsetInCU: 0xBB67, offset: 0xBB67, size: 0x8, addend: 0x0, symName: __ZNKSt3__114default_deleteINS_15__thread_structEEclB7v160006EPS1_, symObjAddr: 0x1DF4, symBinAddr: 0x100002C0C, symSize: 0x4C }
  - { offsetInCU: 0xBB9A, offset: 0xBB9A, size: 0x8, addend: 0x0, symName: __ZNSt3__16threadC2IRFiiiiEJRiiiEvEEOT_DpOT0_, symObjAddr: 0x1E40, symBinAddr: 0x100002C58, symSize: 0x160 }
  - { offsetInCU: 0xBC51, offset: 0xBC51, size: 0x8, addend: 0x0, symName: __ZNSt3__15tupleIJNS_10unique_ptrINS_15__thread_structENS_14default_deleteIS2_EEEEPFiiiiEiiiEEC1B7v160006IJS5_RS6_RiiiELi0EEEDpOT_, symObjAddr: 0x1FA0, symBinAddr: 0x100002DB8, symSize: 0x54 }
  - { offsetInCU: 0xBCEA, offset: 0xBCEA, size: 0x8, addend: 0x0, symName: __ZNSt3__15tupleIJNS_10unique_ptrINS_15__thread_structENS_14default_deleteIS2_EEEEPFiiiiEiiiEEC2B7v160006IJS5_RS6_RiiiELi0EEEDpOT_, symObjAddr: 0x1FF4, symBinAddr: 0x100002E0C, symSize: 0x54 }
  - { offsetInCU: 0xBD83, offset: 0xBD83, size: 0x8, addend: 0x0, symName: __ZNSt3__112__tuple_implINS_15__tuple_indicesIJLm0ELm1ELm2ELm3ELm4EEEEJNS_10unique_ptrINS_15__thread_structENS_14default_deleteIS4_EEEEPFiiiiEiiiEEC1B7v160006IJLm0ELm1ELm2ELm3ELm4EEJS7_S9_iiiEJEJEJS7_RS8_RiiiEEENS1_IJXspT_EEEENS_13__tuple_typesIJDpT0_EEENS1_IJXspT1_EEEENSF_IJDpT2_EEEDpOT3_, symObjAddr: 0x2048, symBinAddr: 0x100002E60, symSize: 0x54 }
  - { offsetInCU: 0xBE8F, offset: 0xBE8F, size: 0x8, addend: 0x0, symName: __ZNSt3__112__tuple_implINS_15__tuple_indicesIJLm0ELm1ELm2ELm3ELm4EEEEJNS_10unique_ptrINS_15__thread_structENS_14default_deleteIS4_EEEEPFiiiiEiiiEEC2B7v160006IJLm0ELm1ELm2ELm3ELm4EEJS7_S9_iiiEJEJEJS7_RS8_RiiiEEENS1_IJXspT_EEEENS_13__tuple_typesIJDpT0_EEENS1_IJXspT1_EEEENSF_IJDpT2_EEEDpOT3_, symObjAddr: 0x209C, symBinAddr: 0x100002EB4, symSize: 0x84 }
  - { offsetInCU: 0xBF9B, offset: 0xBF9B, size: 0x8, addend: 0x0, symName: __ZNSt3__112__tuple_leafILm4EiLb0EEC2B7v160006IivEEOT_, symObjAddr: 0x2120, symBinAddr: 0x100002F38, symSize: 0x24 }
  - { offsetInCU: 0xBFDD, offset: 0xBFDD, size: 0x8, addend: 0x0, symName: __ZNSt3__111char_traitsIcE6lengthEPKc, symObjAddr: 0x2330, symBinAddr: 0x100003148, symSize: 0x34 }
  - { offsetInCU: 0xC01E, offset: 0xC01E, size: 0x8, addend: 0x0, symName: __ZNKSt3__113basic_ostreamIcNS_11char_traitsIcEEE6sentrycvbB7v160006Ev, symObjAddr: 0x2364, symBinAddr: 0x10000317C, symSize: 0x1C }
  - { offsetInCU: 0xC043, offset: 0xC043, size: 0x8, addend: 0x0, symName: __ZNSt3__119ostreambuf_iteratorIcNS_11char_traitsIcEEEC1B7v160006ERNS_13basic_ostreamIcS2_EE, symObjAddr: 0x25C0, symBinAddr: 0x1000033D8, symSize: 0x34 }
  - { offsetInCU: 0xC07A, offset: 0xC07A, size: 0x8, addend: 0x0, symName: __ZNKSt3__18ios_base5flagsB7v160006Ev, symObjAddr: 0x25F4, symBinAddr: 0x10000340C, symSize: 0x18 }
  - { offsetInCU: 0xC0A1, offset: 0xC0A1, size: 0x8, addend: 0x0, symName: __ZNKSt3__19basic_iosIcNS_11char_traitsIcEEE4fillB7v160006Ev, symObjAddr: 0x260C, symBinAddr: 0x100003424, symSize: 0x64 }
  - { offsetInCU: 0xC0C8, offset: 0xC0C8, size: 0x8, addend: 0x0, symName: __ZNKSt3__119ostreambuf_iteratorIcNS_11char_traitsIcEEE6failedB7v160006Ev, symObjAddr: 0x2670, symBinAddr: 0x100003488, symSize: 0x24 }
  - { offsetInCU: 0xC0EC, offset: 0xC0EC, size: 0x8, addend: 0x0, symName: __ZNSt3__19basic_iosIcNS_11char_traitsIcEEE8setstateB7v160006Ej, symObjAddr: 0x2694, symBinAddr: 0x1000034AC, symSize: 0x2C }
  - { offsetInCU: 0xC120, offset: 0xC120, size: 0x8, addend: 0x0, symName: __ZNKSt3__18ios_base5widthB7v160006Ev, symObjAddr: 0x26C0, symBinAddr: 0x1000034D8, symSize: 0x18 }
  - { offsetInCU: 0xC146, offset: 0xC146, size: 0x8, addend: 0x0, symName: __ZNSt3__115basic_streambufIcNS_11char_traitsIcEEE5sputnB7v160006EPKcl, symObjAddr: 0x26D8, symBinAddr: 0x1000034F0, symSize: 0x3C }
  - { offsetInCU: 0xC187, offset: 0xC187, size: 0x8, addend: 0x0, symName: __ZNSt3__112basic_stringIcNS_11char_traitsIcEENS_9allocatorIcEEEC1B7v160006Emc, symObjAddr: 0x2714, symBinAddr: 0x10000352C, symSize: 0x3C }
  - { offsetInCU: 0xC1CD, offset: 0xC1CD, size: 0x8, addend: 0x0, symName: __ZNKSt3__112basic_stringIcNS_11char_traitsIcEENS_9allocatorIcEEE4dataB7v160006Ev, symObjAddr: 0x2750, symBinAddr: 0x100003568, symSize: 0x28 }
  - { offsetInCU: 0xC1F2, offset: 0xC1F2, size: 0x8, addend: 0x0, symName: __ZNSt3__18ios_base5widthB7v160006El, symObjAddr: 0x2778, symBinAddr: 0x100003590, symSize: 0x2C }
  - { offsetInCU: 0xC237, offset: 0xC237, size: 0x8, addend: 0x0, symName: __ZNSt3__112basic_stringIcNS_11char_traitsIcEENS_9allocatorIcEEEC2B7v160006Emc, symObjAddr: 0x27A4, symBinAddr: 0x1000035BC, symSize: 0x54 }
  - { offsetInCU: 0xC283, offset: 0xC283, size: 0x8, addend: 0x0, symName: __ZNSt3__117__compressed_pairINS_12basic_stringIcNS_11char_traitsIcEENS_9allocatorIcEEE5__repES5_EC1B7v160006INS_18__default_init_tagESA_EEOT_OT0_, symObjAddr: 0x27F8, symBinAddr: 0x100003610, symSize: 0x3C }
  - { offsetInCU: 0xC2DA, offset: 0xC2DA, size: 0x8, addend: 0x0, symName: __ZNSt3__117__compressed_pairINS_12basic_stringIcNS_11char_traitsIcEENS_9allocatorIcEEE5__repES5_EC2B7v160006INS_18__default_init_tagESA_EEOT_OT0_, symObjAddr: 0x2844, symBinAddr: 0x10000365C, symSize: 0x3C }
  - { offsetInCU: 0xC331, offset: 0xC331, size: 0x8, addend: 0x0, symName: __ZNSt3__122__compressed_pair_elemINS_12basic_stringIcNS_11char_traitsIcEENS_9allocatorIcEEE5__repELi0ELb0EEC2B7v160006ENS_18__default_init_tagE, symObjAddr: 0x2880, symBinAddr: 0x100003698, symSize: 0x14 }
  - { offsetInCU: 0xC365, offset: 0xC365, size: 0x8, addend: 0x0, symName: __ZNSt3__122__compressed_pair_elemINS_9allocatorIcEELi1ELb1EEC2B7v160006ENS_18__default_init_tagE, symObjAddr: 0x2894, symBinAddr: 0x1000036AC, symSize: 0x2C }
  - { offsetInCU: 0xC399, offset: 0xC399, size: 0x8, addend: 0x0, symName: __ZNSt3__19allocatorIcEC2B7v160006Ev, symObjAddr: 0x28C0, symBinAddr: 0x1000036D8, symSize: 0x2C }
  - { offsetInCU: 0xC3C2, offset: 0xC3C2, size: 0x8, addend: 0x0, symName: __ZNSt3__116__non_trivial_ifILb1ENS_9allocatorIcEEEC2B7v160006Ev, symObjAddr: 0x28EC, symBinAddr: 0x100003704, symSize: 0x14 }
  - { offsetInCU: 0xC3EA, offset: 0xC3EA, size: 0x8, addend: 0x0, symName: __ZNKSt3__112basic_stringIcNS_11char_traitsIcEENS_9allocatorIcEEE13__get_pointerB7v160006Ev, symObjAddr: 0x2914, symBinAddr: 0x10000372C, symSize: 0x54 }
  - { offsetInCU: 0xC40E, offset: 0xC40E, size: 0x8, addend: 0x0, symName: __ZNKSt3__112basic_stringIcNS_11char_traitsIcEENS_9allocatorIcEEE9__is_longB7v160006Ev, symObjAddr: 0x2968, symBinAddr: 0x100003780, symSize: 0x38 }
  - { offsetInCU: 0xC432, offset: 0xC432, size: 0x8, addend: 0x0, symName: __ZNKSt3__112basic_stringIcNS_11char_traitsIcEENS_9allocatorIcEEE18__get_long_pointerB7v160006Ev, symObjAddr: 0x29A0, symBinAddr: 0x1000037B8, symSize: 0x28 }
  - { offsetInCU: 0xC456, offset: 0xC456, size: 0x8, addend: 0x0, symName: __ZNKSt3__112basic_stringIcNS_11char_traitsIcEENS_9allocatorIcEEE19__get_short_pointerB7v160006Ev, symObjAddr: 0x29C8, symBinAddr: 0x1000037E0, symSize: 0x28 }
  - { offsetInCU: 0xC47A, offset: 0xC47A, size: 0x8, addend: 0x0, symName: __ZNKSt3__117__compressed_pairINS_12basic_stringIcNS_11char_traitsIcEENS_9allocatorIcEEE5__repES5_E5firstB7v160006Ev, symObjAddr: 0x29F0, symBinAddr: 0x100003808, symSize: 0x24 }
  - { offsetInCU: 0xC49F, offset: 0xC49F, size: 0x8, addend: 0x0, symName: __ZNKSt3__122__compressed_pair_elemINS_12basic_stringIcNS_11char_traitsIcEENS_9allocatorIcEEE5__repELi0ELb0EE5__getB7v160006Ev, symObjAddr: 0x2A14, symBinAddr: 0x10000382C, symSize: 0x14 }
  - { offsetInCU: 0xC4C4, offset: 0xC4C4, size: 0x8, addend: 0x0, symName: __ZNSt3__114pointer_traitsIPKcE10pointer_toB7v160006ERS1_, symObjAddr: 0x2A28, symBinAddr: 0x100003840, symSize: 0x14 }
  - { offsetInCU: 0xC4E7, offset: 0xC4E7, size: 0x8, addend: 0x0, symName: __ZNSt3__119ostreambuf_iteratorIcNS_11char_traitsIcEEEC2B7v160006ERNS_13basic_ostreamIcS2_EE, symObjAddr: 0x2A3C, symBinAddr: 0x100003854, symSize: 0x54 }
  - { offsetInCU: 0xC51E, offset: 0xC51E, size: 0x8, addend: 0x0, symName: __ZNKSt3__19basic_iosIcNS_11char_traitsIcEEE5rdbufB7v160006Ev, symObjAddr: 0x2A90, symBinAddr: 0x1000038A8, symSize: 0x24 }
  - { offsetInCU: 0xC545, offset: 0xC545, size: 0x8, addend: 0x0, symName: __ZNKSt3__18ios_base5rdbufB7v160006Ev, symObjAddr: 0x2AB4, symBinAddr: 0x1000038CC, symSize: 0x18 }
  - { offsetInCU: 0xC56A, offset: 0xC56A, size: 0x8, addend: 0x0, symName: __ZNSt3__111char_traitsIcE11eq_int_typeEii, symObjAddr: 0x2ACC, symBinAddr: 0x1000038E4, symSize: 0x28 }
  - { offsetInCU: 0xC59B, offset: 0xC59B, size: 0x8, addend: 0x0, symName: __ZNSt3__111char_traitsIcE3eofEv, symObjAddr: 0x2AF4, symBinAddr: 0x10000390C, symSize: 0x8 }
  - { offsetInCU: 0xC5AF, offset: 0xC5AF, size: 0x8, addend: 0x0, symName: __ZNKSt3__19basic_iosIcNS_11char_traitsIcEEE5widenB7v160006Ec, symObjAddr: 0x2AFC, symBinAddr: 0x100003914, symSize: 0x84 }
  - { offsetInCU: 0xC61B, offset: 0xC61B, size: 0x8, addend: 0x0, symName: __ZNKSt3__15ctypeIcE5widenB7v160006Ec, symObjAddr: 0x2BAC, symBinAddr: 0x1000039C4, symSize: 0x38 }
  - { offsetInCU: 0xC64F, offset: 0xC64F, size: 0x8, addend: 0x0, symName: __ZNSt3__18ios_base8setstateB7v160006Ej, symObjAddr: 0x2BE4, symBinAddr: 0x1000039FC, symSize: 0x34 }
...
